target datalayout = "e-m:e-p270:32:32-p271:32:32-p272:64:64-i64:64-i128:128-f80:128-n8:16:32:64-S128"
target triple = "x86_64-pc-linux-gnu"

%struct.AVPacket = type { ptr, i64, i64, ptr, i32, i32, i32, ptr, i32, i64, i64, ptr, ptr, %struct.AVRational }
%struct.AVRational = type { i32, i32 }
%struct.AVFormatContext = type { ptr, ptr, ptr, ptr, ptr, i32, i32, ptr, i32, ptr, i32, ptr, ptr, i64, i64, i64, i32, i32, i32, i64, i64, ptr, i32, i32, ptr, i32, i32, i32, i32, ptr, i64, i32, i32, %struct.AVIOInterruptCB, i32, i32, i32, i32, i64, i32, i32, i32, i32, i32, i32, i32, i32, i32, i32, i32, i32, i64, i32, i32, i32, i32, i32, ptr, ptr, ptr, ptr, i32, ptr, ptr, ptr, ptr, i32, ptr, ptr, i64, ptr, ptr, ptr, i64 }
%struct.AVIOInterruptCB = type { ptr, ptr }

; Function Attrs: alwaysinline nounwind uwtable
define internal i64 @avio_tell(ptr noundef %0) #3 {
  %2 = alloca ptr, align 8
  store ptr %0, ptr %2, align 8, !tbaa !51
  %3 = load ptr, ptr %2, align 8, !tbaa !51
  %4 = call i64 @avio_seek(ptr noundef %3, i64 noundef 0, i32 noundef 1)
  ret i64 %4
}

; Function Attrs: nounwind uwtable
define internal i32 @ac4_read_packet(ptr noundef %0, ptr noundef %1) #0 {
  %3 = alloca i32, align 4
  %4 = alloca ptr, align 8
  %5 = alloca ptr, align 8
  %6 = alloca ptr, align 8
  %7 = alloca i64, align 8
  %8 = alloca i16, align 2
  %9 = alloca i32, align 4
  %10 = alloca i32, align 4
  %11 = alloca i32, align 4
  store ptr %0, ptr %4, align 8, !tbaa !19
  store ptr %1, ptr %5, align 8, !tbaa !37
  call void @llvm.lifetime.start.p0(i64 8, ptr %6) #4
  %12 = load ptr, ptr %4, align 8, !tbaa !19
  %13 = getelementptr inbounds nuw %struct.AVFormatContext, ptr %12, i32 0, i32 4
  %14 = load ptr, ptr %13, align 8, !tbaa !39
  store ptr %14, ptr %6, align 8, !tbaa !51
  call void @llvm.lifetime.start.p0(i64 8, ptr %7) #4
  call void @llvm.lifetime.start.p0(i64 2, ptr %8) #4
  call void @llvm.lifetime.start.p0(i64 4, ptr %9) #4
  call void @llvm.lifetime.start.p0(i64 4, ptr %10) #4
  %15 = load ptr, ptr %4, align 8, !tbaa !19
  %16 = getelementptr inbounds nuw %struct.AVFormatContext, ptr %15, i32 0, i32 4
  %17 = load ptr, ptr %16, align 8, !tbaa !39
  %18 = call i32 @avio_feof(ptr noundef %17)
  %19 = icmp ne i32 %18, 0
  br i1 %19, label %20, label %21

20:                                               ; preds = %2
  store i32 -541478725, ptr %3, align 4
  store i32 1, ptr %11, align 4
  br label %54

21:                                               ; preds = %2
  %22 = load ptr, ptr %4, align 8, !tbaa !19
  %23 = getelementptr inbounds nuw %struct.AVFormatContext, ptr %22, i32 0, i32 4
  %24 = load ptr, ptr %23, align 8, !tbaa !39
  %25 = call i64 @avio_tell(ptr noundef %24)
  store i64 %25, ptr %7, align 8, !tbaa !52
  %26 = load ptr, ptr %6, align 8, !tbaa !51
  %27 = call i32 @avio_rb16(ptr noundef %26)
  %28 = trunc i32 %27 to i16
  store i16 %28, ptr %8, align 2, !tbaa !53
  %29 = load ptr, ptr %6, align 8, !tbaa !51
  %30 = call i32 @avio_rb16(ptr noundef %29)
  store i32 %30, ptr %10, align 4, !tbaa !15
  %31 = load i32, ptr %10, align 4, !tbaa !15
  %32 = icmp eq i32 %31, 65535
  br i1 %32, label %33, label %36

33:                                               ; preds = %21
  %34 = load ptr, ptr %6, align 8, !tbaa !51
  %35 = call i32 @avio_rb24(ptr noundef %34)
  store i32 %35, ptr %10, align 4, !tbaa !15
  br label %36

36:                                               ; preds = %33, %21
  %37 = load ptr, ptr %6, align 8, !tbaa !51
  %38 = load ptr, ptr %5, align 8, !tbaa !37
  %39 = load i32, ptr %10, align 4, !tbaa !15
  %40 = call i32 @av_get_packet(ptr noundef %37, ptr noundef %38, i32 noundef %39)
  store i32 %40, ptr %9, align 4, !tbaa !15
  %41 = load i64, ptr %7, align 8, !tbaa !52
  %42 = load ptr, ptr %5, align 8, !tbaa !37
  %43 = getelementptr inbounds nuw %struct.AVPacket, ptr %42, i32 0, i32 10
  store i64 %41, ptr %43, align 8, !tbaa !55
  %44 = load ptr, ptr %5, align 8, !tbaa !37
  %45 = getelementptr inbounds nuw %struct.AVPacket, ptr %44, i32 0, i32 5
  store i32 0, ptr %45, align 4, !tbaa !56
  %46 = load i16, ptr %8, align 2, !tbaa !53
  %47 = zext i16 %46 to i32
  %48 = icmp eq i32 %47, 44097
  br i1 %48, label %49, label %52

49:                                               ; preds = %36
  %50 = load ptr, ptr %6, align 8, !tbaa !51
  %51 = call i64 @avio_skip(ptr noundef %50, i64 noundef 2)
  br label %52

52:                                               ; preds = %49, %36
  %53 = load i32, ptr %9, align 4, !tbaa !15
  store i32 %53, ptr %3, align 4
  store i32 1, ptr %11, align 4
  br label %54

54:                                               ; preds = %52, %20
  call void @llvm.lifetime.end.p0(i64 4, ptr %10) #4
  call void @llvm.lifetime.end.p0(i64 4, ptr %9) #4
  call void @llvm.lifetime.end.p0(i64 2, ptr %8) #4
  call void @llvm.lifetime.end.p0(i64 8, ptr %7) #4
  call void @llvm.lifetime.end.p0(i64 8, ptr %6) #4
  %55 = load i32, ptr %3, align 4
  ret i32 %55
}