; Function Attrs: nounwind uwtable
define internal i32 @ac4_read_packet(ptr noundef readonly captures(none) %0, ptr noundef %1) #1 {
  %3 = getelementptr inbounds nuw i8, ptr %0, i64 32
  %4 = load ptr, ptr %3, align 8, !tbaa !27
  %5 = tail call i32 @avio_feof(ptr noundef %4) #4
  %.not = icmp eq i32 %5, 0
  br i1 %.not, label %6, label %22

6:                                                ; preds = %2
  %7 = load ptr, ptr %3, align 8, !tbaa !27
  %8 = tail call i64 @avio_seek(ptr noundef %7, i64 noundef 0, i32 noundef 1) #4
  %9 = tail call i32 @avio_rb16(ptr noundef %4) #4
  %10 = tail call i32 @avio_rb16(ptr noundef %4) #4
  %11 = icmp eq i32 %10, 65535
  br i1 %11, label %12, label %14

12:                                               ; preds = %6
  %13 = tail call i32 @avio_rb24(ptr noundef %4) #4
  br label %14

14:                                               ; preds = %12, %6
  %.0 = phi i32 [ %13, %12 ], [ %10, %6 ]
  %15 = tail call i32 @av_get_packet(ptr noundef %4, ptr noundef %1, i32 noundef %.0) #4
  %16 = getelementptr inbounds nuw i8, ptr %1, i64 72
  store i64 %8, ptr %16, align 8, !tbaa !39
  %17 = getelementptr inbounds nuw i8, ptr %1, i64 36
  store i32 0, ptr %17, align 4, !tbaa !40
  %18 = and i32 %9, 65535
  %19 = icmp eq i32 %18, 44097
  br i1 %19, label %20, label %22

20:                                               ; preds = %14
  %21 = tail call i64 @avio_skip(ptr noundef %4, i64 noundef 2) #4
  br label %22

22:                                               ; preds = %14, %20, %2
  %.016 = phi i32 [ -541478725, %2 ], [ %15, %20 ], [ %15, %14 ]
  ret i32 %.016
}